target datalayout = "e-m:e-p270:32:32-p271:32:32-p272:64:64-i64:64-i128:128-f80:128-n8:16:32:64-S128"
target triple = "x86_64-pc-linux-gnu"

@sine_table = internal global [2048 x float] zeroinitializer, align 16
@hann_window = internal global [256 x float] zeroinitializer, align 16
@amp_sf_tab = internal global [64 x float] zeroinitializer, align 16

; Function Attrs: cold nounwind optsize uwtable
define void @ff_atrac3p_init_dsp_static() #0 {
  %1 = alloca i32, align 4
  call void @llvm.lifetime.start.p0(i64 4, ptr %1) #6
  store i32 0, ptr %1, align 4, !tbaa !4
  br label %2

2:                                                ; preds = %15, %0
  %3 = load i32, ptr %1, align 4, !tbaa !4
  %4 = icmp slt i32 %3, 2048
  br i1 %4, label %5, label %18

5:                                                ; preds = %2
  %6 = load i32, ptr %1, align 4, !tbaa !4
  %7 = sitofp i32 %6 to double
  %8 = fmul nsz double 0x401921FB54442D18, %7
  %9 = fdiv nsz double %8, 2.048000e+03
  %10 = call nsz double @llvm.sin.f64(double %9)
  %11 = fptrunc nsz double %10 to float
  %12 = load i32, ptr %1, align 4, !tbaa !4
  %13 = sext i32 %12 to i64
  %14 = getelementptr inbounds [2048 x float], ptr @sine_table, i64 0, i64 %13
  store float %11, ptr %14, align 4, !tbaa !8
  br label %15

15:                                               ; preds = %5
  %16 = load i32, ptr %1, align 4, !tbaa !4
  %17 = add nsw i32 %16, 1
  store i32 %17, ptr %1, align 4, !tbaa !4
  br label %2, !llvm.loop !10

18:                                               ; preds = %2
  store i32 0, ptr %1, align 4, !tbaa !4
  br label %19

19:                                               ; preds = %34, %18
  %20 = load i32, ptr %1, align 4, !tbaa !4
  %21 = icmp slt i32 %20, 256
  br i1 %21, label %22, label %37

22:                                               ; preds = %19
  %23 = load i32, ptr %1, align 4, !tbaa !4
  %24 = sitofp i32 %23 to double
  %25 = fmul nsz double 0x401921FB54442D18, %24
  %26 = fdiv nsz double %25, 2.560000e+02
  %27 = call nsz double @llvm.cos.f64(double %26)
  %28 = fsub nsz double 1.000000e+00, %27
  %29 = fmul nsz double %28, 5.000000e-01
  %30 = fptrunc nsz double %29 to float
  %31 = load i32, ptr %1, align 4, !tbaa !4
  %32 = sext i32 %31 to i64
  %33 = getelementptr inbounds [256 x float], ptr @hann_window, i64 0, i64 %32
  store float %30, ptr %33, align 4, !tbaa !8
  br label %34

34:                                               ; preds = %22
  %35 = load i32, ptr %1, align 4, !tbaa !4
  %36 = add nsw i32 %35, 1
  store i32 %36, ptr %1, align 4, !tbaa !4
  br label %19, !llvm.loop !12

37:                                               ; preds = %19
  store i32 0, ptr %1, align 4, !tbaa !4
  br label %38

38:                                               ; preds = %50, %37
  %39 = load i32, ptr %1, align 4, !tbaa !4
  %40 = icmp slt i32 %39, 64
  br i1 %40, label %41, label %53

41:                                               ; preds = %38
  %42 = load i32, ptr %1, align 4, !tbaa !4
  %43 = sub nsw i32 %42, 3
  %44 = sitofp i32 %43 to float
  %45 = fdiv nsz float %44, 4.000000e+00
  %46 = call nsz float @llvm.exp2.f32(float %45)
  %47 = load i32, ptr %1, align 4, !tbaa !4
  %48 = sext i32 %47 to i64
  %49 = getelementptr inbounds [64 x float], ptr @amp_sf_tab, i64 0, i64 %48
  store float %46, ptr %49, align 4, !tbaa !8
  br label %50

50:                                               ; preds = %41
  %51 = load i32, ptr %1, align 4, !tbaa !4
  %52 = add nsw i32 %51, 1
  store i32 %52, ptr %1, align 4, !tbaa !4
  br label %38, !llvm.loop !13

53:                                               ; preds = %38
  call void @ff_init_ff_sine_windows(i32 noundef 7)
  call void @ff_init_ff_sine_windows(i32 noundef 6)
  call void @llvm.lifetime.end.p0(i64 4, ptr %1) #6
  ret void
}