; Function Attrs: cold nounwind optsize uwtable
define void @ff_atrac3p_init_dsp_static() local_unnamed_addr #0 {
  br label %1

1:                                                ; preds = %0, %1
  %indvars.iv = phi i64 [ 0, %0 ], [ %indvars.iv.next, %1 ]
  %2 = trunc nuw nsw i64 %indvars.iv to i32
  %3 = uitofp nneg i32 %2 to double
  %4 = fmul nsz double %3, 0x401921FB54442D18
  %5 = fmul nsz double %4, 0x3F40000000000000
  %6 = tail call nsz double @llvm.sin.f64(double %5)
  %7 = fptrunc nsz double %6 to float
  %8 = getelementptr inbounds nuw [2048 x float], ptr @sine_table, i64 0, i64 %indvars.iv
  store float %7, ptr %8, align 4, !tbaa !4
  %indvars.iv.next = add nuw nsw i64 %indvars.iv, 1
  %exitcond.not = icmp eq i64 %indvars.iv.next, 2048
  br i1 %exitcond.not, label %.preheader12, label %1, !llvm.loop !8

.preheader12:                                     ; preds = %1, %.preheader12
  %indvars.iv17 = phi i64 [ %indvars.iv.next18, %.preheader12 ], [ 0, %1 ]
  %9 = trunc nuw nsw i64 %indvars.iv17 to i32
  %10 = uitofp nneg i32 %9 to double
  %11 = fmul nsz double %10, 0x401921FB54442D18
  %12 = fmul nsz double %11, 3.906250e-03
  %13 = tail call nsz double @llvm.cos.f64(double %12)
  %14 = fsub nsz double 1.000000e+00, %13
  %15 = fmul nsz double %14, 5.000000e-01
  %16 = fptrunc nsz double %15 to float
  %17 = getelementptr inbounds nuw [256 x float], ptr @hann_window, i64 0, i64 %indvars.iv17
  store float %16, ptr %17, align 4, !tbaa !4
  %indvars.iv.next18 = add nuw nsw i64 %indvars.iv17, 1
  %exitcond20.not = icmp eq i64 %indvars.iv.next18, 256
  br i1 %exitcond20.not, label %.preheader, label %.preheader12, !llvm.loop !10

.preheader:                                       ; preds = %.preheader12, %.preheader
  %indvars.iv21 = phi i64 [ %indvars.iv.next22, %.preheader ], [ 0, %.preheader12 ]
  %18 = trunc i64 %indvars.iv21 to i32
  %19 = add i32 %18, -3
  %20 = sitofp i32 %19 to float
  %21 = fmul nsz float %20, 2.500000e-01
  %22 = tail call nsz float @llvm.exp2.f32(float %21)
  %23 = getelementptr inbounds nuw [64 x float], ptr @amp_sf_tab, i64 0, i64 %indvars.iv21
  store float %22, ptr %23, align 4, !tbaa !4
  %indvars.iv.next22 = add nuw nsw i64 %indvars.iv21, 1
  %exitcond24.not = icmp eq i64 %indvars.iv.next22, 64
  br i1 %exitcond24.not, label %24, label %.preheader, !llvm.loop !11

24:                                               ; preds = %.preheader
  tail call void @ff_init_ff_sine_windows(i32 noundef 7) #8
  tail call void @ff_init_ff_sine_windows(i32 noundef 6) #8
  ret void
}